target datalayout = "e-m:e-p270:32:32-p271:32:32-p272:64:64-i64:64-i128:128-f80:128-n8:16:32:64-S128"
target triple = "x86_64-pc-linux-gnu"

@.str.5 = private unnamed_addr constant [6 x i8] c"FILE*\00", align 1
@.str.32 = private unnamed_addr constant [14 x i8] c"file (closed)\00", align 1
@.str.33 = private unnamed_addr constant [10 x i8] c"file (%p)\00", align 1

; Function Attrs: nounwind uwtable
define internal i32 @io_tostring(ptr noundef %0) #0 {
  %2 = alloca ptr, align 8
  %3 = alloca ptr, align 8
  store ptr %0, ptr %2, align 8, !tbaa !4
  call void @llvm.lifetime.start.p0(i64 8, ptr %3) #6
  %4 = load ptr, ptr %2, align 8, !tbaa !4
  %5 = call ptr @luaL_checkudata(ptr noundef %4, i32 noundef 1, ptr noundef @.str.5)
  %6 = load ptr, ptr %5, align 8, !tbaa !9
  store ptr %6, ptr %3, align 8, !tbaa !9
  %7 = load ptr, ptr %3, align 8, !tbaa !9
  %8 = icmp eq ptr %7, null
  br i1 %8, label %9, label %11

9:                                                ; preds = %1
  %10 = load ptr, ptr %2, align 8, !tbaa !4
  call void @lua_pushlstring(ptr noundef %10, ptr noundef @.str.32, i64 noundef 13)
  br label %15

11:                                               ; preds = %1
  %12 = load ptr, ptr %2, align 8, !tbaa !4
  %13 = load ptr, ptr %3, align 8, !tbaa !9
  %14 = call ptr (ptr, ptr, ...) @lua_pushfstring(ptr noundef %12, ptr noundef @.str.33, ptr noundef %13)
  br label %15

15:                                               ; preds = %11, %9
  call void @llvm.lifetime.end.p0(i64 8, ptr %3) #6
  ret i32 1
}