; Function Attrs: nounwind uwtable
define internal noundef i32 @io_tostring(ptr noundef %0) #0 {
  %2 = tail call ptr @luaL_checkudata(ptr noundef %0, i32 noundef 1, ptr noundef nonnull @.str.5) #9
  %3 = load ptr, ptr %2, align 8, !tbaa !4
  %4 = icmp eq ptr %3, null
  br i1 %4, label %5, label %6

5:                                                ; preds = %1
  tail call void @lua_pushlstring(ptr noundef %0, ptr noundef nonnull @.str.32, i64 noundef 13) #9
  br label %8

6:                                                ; preds = %1
  %7 = tail call ptr (ptr, ptr, ...) @lua_pushfstring(ptr noundef %0, ptr noundef nonnull @.str.33, ptr noundef nonnull %3) #9
  br label %8

8:                                                ; preds = %6, %5
  ret i32 1
}